; Function Attrs: nounwind sspstrong uwtable
define internal noundef zeroext i1 @vhost_user_check_peer_type(ptr readnone captures(none) %nc, ptr noundef %oc, ptr noundef %errp) #0 {
entry:
  %call = tail call ptr @object_class_get_name(ptr noundef %oc) #10
  %call1 = tail call i32 @g_str_has_prefix(ptr noundef %call, ptr noundef nonnull @.str.13) #10
  %tobool.not = icmp ne i32 %call1, 0
  br i1 %tobool.not, label %return, label %if.then

if.then:                                          ; preds = %entry
  tail call void (ptr, ptr, i32, ptr, ptr, ...) @error_setg_internal(ptr noundef %errp, ptr noundef nonnull @.str.1, i32 noundef 216, ptr noundef nonnull @__func__.vhost_user_check_peer_type, ptr noundef nonnull @.str.14) #10
  br label %return

return:                                           ; preds = %entry, %if.then
  ret i1 %tobool.not
}